; ModuleID = 'source-C-CXX/1/416.c'
source_filename = "source-C-CXX/1/416.c"
target datalayout = "e-m:e-p270:32:32-p271:32:32-p272:64:64-i64:64-f80:128-n8:16:32:64-S128"
target triple = "x86_64-pc-linux-gnu"

@.str = private unnamed_addr constant [3 x i8] c"%d\00", align 1
@.str.1 = private unnamed_addr constant [6 x i8] c"%d %s\00", align 1
@.str.2 = private unnamed_addr constant [7 x i8] c"%c\0A%d\0A\00", align 1
@.str.3 = private unnamed_addr constant [4 x i8] c"%d\0A\00", align 1

; Function Attrs: nofree nounwind sspstrong uwtable
define dso_local i32 @main() local_unnamed_addr #0 {
  %1 = alloca i32, align 4
  %2 = alloca [999 x i32], align 16
  %3 = alloca [27 x i32], align 16
  %4 = alloca [999 x [27 x i8]], align 16
  %5 = bitcast i32* %1 to i8*
  call void @llvm.lifetime.start.p0i8(i64 4, i8* nonnull %5) #4
  %6 = bitcast [999 x i32]* %2 to i8*
  call void @llvm.lifetime.start.p0i8(i64 3996, i8* nonnull %6) #4
  %7 = bitcast [27 x i32]* %3 to i8*
  call void @llvm.lifetime.start.p0i8(i64 108, i8* nonnull %7) #4
  call void @llvm.memset.p0i8.i64(i8* noundef nonnull align 16 dereferenceable(108) %7, i8 0, i64 108, i1 false)
  %8 = getelementptr inbounds [999 x [27 x i8]], [999 x [27 x i8]]* %4, i64 0, i64 0, i64 0
  call void @llvm.lifetime.start.p0i8(i64 26973, i8* nonnull %8) #4
  %9 = call i32 (i8*, ...) @__isoc99_scanf(i8* getelementptr inbounds ([3 x i8], [3 x i8]* @.str, i64 0, i64 0), i32* nonnull %1)
  %10 = load i32, i32* %1, align 4, !tbaa !5
  %11 = icmp sgt i32 %10, 0
  br i1 %11, label %12, label %36

12:                                               ; preds = %0, %31
  %13 = phi i64 [ %32, %31 ], [ 0, %0 ]
  %14 = getelementptr inbounds [999 x i32], [999 x i32]* %2, i64 0, i64 %13
  %15 = getelementptr inbounds [999 x [27 x i8]], [999 x [27 x i8]]* %4, i64 0, i64 %13, i64 0
  %16 = call i32 (i8*, ...) @__isoc99_scanf(i8* getelementptr inbounds ([6 x i8], [6 x i8]* @.str.1, i64 0, i64 0), i32* nonnull %14, i8* nonnull %15)
  %17 = load i8, i8* %15, align 1, !tbaa !9
  %18 = icmp eq i8 %17, 0
  br i1 %18, label %31, label %19

19:                                               ; preds = %12, %19
  %20 = phi i64 [ %27, %19 ], [ 0, %12 ]
  %21 = phi i8 [ %29, %19 ], [ %17, %12 ]
  %22 = sext i8 %21 to i64
  %23 = add nsw i64 %22, -65
  %24 = getelementptr inbounds [27 x i32], [27 x i32]* %3, i64 0, i64 %23
  %25 = load i32, i32* %24, align 4, !tbaa !5
  %26 = add nsw i32 %25, 1
  store i32 %26, i32* %24, align 4, !tbaa !5
  %27 = add nuw nsw i64 %20, 1
  %28 = getelementptr inbounds [999 x [27 x i8]], [999 x [27 x i8]]* %4, i64 0, i64 %13, i64 %27
  %29 = load i8, i8* %28, align 1, !tbaa !9
  %30 = icmp eq i8 %29, 0
  br i1 %30, label %31, label %19, !llvm.loop !10

31:                                               ; preds = %19, %12
  %32 = add nuw nsw i64 %13, 1
  %33 = load i32, i32* %1, align 4, !tbaa !5
  %34 = sext i32 %33 to i64
  %35 = icmp slt i64 %32, %34
  br i1 %35, label %12, label %36, !llvm.loop !12

36:                                               ; preds = %31, %0
  %37 = getelementptr inbounds [27 x i32], [27 x i32]* %3, i64 0, i64 0
  %38 = load i32, i32* %37, align 16, !tbaa !5
  %39 = getelementptr inbounds [27 x i32], [27 x i32]* %3, i64 0, i64 1
  %40 = load i32, i32* %39, align 4, !tbaa !5
  %41 = icmp sgt i32 %40, %38
  %42 = select i1 %41, i32 %40, i32 %38
  %43 = getelementptr inbounds [27 x i32], [27 x i32]* %3, i64 0, i64 2
  %44 = load i32, i32* %43, align 8, !tbaa !5
  %45 = icmp sgt i32 %44, %42
  %46 = select i1 %45, i32 %44, i32 %42
  %47 = getelementptr inbounds [27 x i32], [27 x i32]* %3, i64 0, i64 3
  %48 = load i32, i32* %47, align 4, !tbaa !5
  %49 = icmp sgt i32 %48, %46
  %50 = select i1 %49, i32 %48, i32 %46
  %51 = getelementptr inbounds [27 x i32], [27 x i32]* %3, i64 0, i64 4
  %52 = load i32, i32* %51, align 16, !tbaa !5
  %53 = icmp sgt i32 %52, %50
  %54 = select i1 %53, i32 %52, i32 %50
  %55 = getelementptr inbounds [27 x i32], [27 x i32]* %3, i64 0, i64 5
  %56 = load i32, i32* %55, align 4, !tbaa !5
  %57 = icmp sgt i32 %56, %54
  %58 = select i1 %57, i32 %56, i32 %54
  %59 = getelementptr inbounds [27 x i32], [27 x i32]* %3, i64 0, i64 6
  %60 = load i32, i32* %59, align 8, !tbaa !5
  %61 = icmp sgt i32 %60, %58
  %62 = select i1 %61, i32 %60, i32 %58
  %63 = getelementptr inbounds [27 x i32], [27 x i32]* %3, i64 0, i64 7
  %64 = load i32, i32* %63, align 4, !tbaa !5
  %65 = icmp sgt i32 %64, %62
  %66 = select i1 %65, i32 %64, i32 %62
  %67 = getelementptr inbounds [27 x i32], [27 x i32]* %3, i64 0, i64 8
  %68 = load i32, i32* %67, align 16, !tbaa !5
  %69 = icmp sgt i32 %68, %66
  %70 = select i1 %69, i32 %68, i32 %66
  %71 = getelementptr inbounds [27 x i32], [27 x i32]* %3, i64 0, i64 9
  %72 = load i32, i32* %71, align 4, !tbaa !5
  %73 = icmp sgt i32 %72, %70
  %74 = select i1 %73, i32 %72, i32 %70
  %75 = getelementptr inbounds [27 x i32], [27 x i32]* %3, i64 0, i64 10
  %76 = load i32, i32* %75, align 8, !tbaa !5
  %77 = icmp sgt i32 %76, %74
  %78 = select i1 %77, i32 %76, i32 %74
  %79 = getelementptr inbounds [27 x i32], [27 x i32]* %3, i64 0, i64 11
  %80 = load i32, i32* %79, align 4, !tbaa !5
  %81 = icmp sgt i32 %80, %78
  %82 = select i1 %81, i32 %80, i32 %78
  %83 = getelementptr inbounds [27 x i32], [27 x i32]* %3, i64 0, i64 12
  %84 = load i32, i32* %83, align 16, !tbaa !5
  %85 = icmp sgt i32 %84, %82
  %86 = select i1 %85, i32 %84, i32 %82
  %87 = getelementptr inbounds [27 x i32], [27 x i32]* %3, i64 0, i64 13
  %88 = load i32, i32* %87, align 4, !tbaa !5
  %89 = icmp sgt i32 %88, %86
  %90 = select i1 %89, i32 %88, i32 %86
  %91 = getelementptr inbounds [27 x i32], [27 x i32]* %3, i64 0, i64 14
  %92 = load i32, i32* %91, align 8, !tbaa !5
  %93 = icmp sgt i32 %92, %90
  %94 = select i1 %93, i32 %92, i32 %90
  %95 = getelementptr inbounds [27 x i32], [27 x i32]* %3, i64 0, i64 15
  %96 = load i32, i32* %95, align 4, !tbaa !5
  %97 = icmp sgt i32 %96, %94
  %98 = select i1 %97, i32 %96, i32 %94
  %99 = getelementptr inbounds [27 x i32], [27 x i32]* %3, i64 0, i64 16
  %100 = load i32, i32* %99, align 16, !tbaa !5
  %101 = icmp sgt i32 %100, %98
  %102 = select i1 %101, i32 %100, i32 %98
  %103 = getelementptr inbounds [27 x i32], [27 x i32]* %3, i64 0, i64 17
  %104 = load i32, i32* %103, align 4, !tbaa !5
  %105 = icmp sgt i32 %104, %102
  %106 = select i1 %105, i32 %104, i32 %102
  %107 = getelementptr inbounds [27 x i32], [27 x i32]* %3, i64 0, i64 18
  %108 = load i32, i32* %107, align 8, !tbaa !5
  %109 = icmp sgt i32 %108, %106
  %110 = select i1 %109, i32 %108, i32 %106
  %111 = getelementptr inbounds [27 x i32], [27 x i32]* %3, i64 0, i64 19
  %112 = load i32, i32* %111, align 4, !tbaa !5
  %113 = icmp sgt i32 %112, %110
  %114 = select i1 %113, i32 %112, i32 %110
  %115 = getelementptr inbounds [27 x i32], [27 x i32]* %3, i64 0, i64 20
  %116 = load i32, i32* %115, align 16, !tbaa !5
  %117 = icmp sgt i32 %116, %114
  %118 = select i1 %117, i32 %116, i32 %114
  %119 = getelementptr inbounds [27 x i32], [27 x i32]* %3, i64 0, i64 21
  %120 = load i32, i32* %119, align 4, !tbaa !5
  %121 = icmp sgt i32 %120, %118
  %122 = select i1 %121, i32 %120, i32 %118
  %123 = getelementptr inbounds [27 x i32], [27 x i32]* %3, i64 0, i64 22
  %124 = load i32, i32* %123, align 8, !tbaa !5
  %125 = icmp sgt i32 %124, %122
  %126 = select i1 %125, i32 %124, i32 %122
  %127 = getelementptr inbounds [27 x i32], [27 x i32]* %3, i64 0, i64 23
  %128 = load i32, i32* %127, align 4, !tbaa !5
  %129 = icmp sgt i32 %128, %126
  %130 = select i1 %129, i32 %128, i32 %126
  %131 = getelementptr inbounds [27 x i32], [27 x i32]* %3, i64 0, i64 24
  %132 = load i32, i32* %131, align 16, !tbaa !5
  %133 = icmp sgt i32 %132, %130
  %134 = select i1 %133, i32 %132, i32 %130
  %135 = getelementptr inbounds [27 x i32], [27 x i32]* %3, i64 0, i64 25
  %136 = load i32, i32* %135, align 4, !tbaa !5
  %137 = icmp sgt i32 %136, %134
  %138 = select i1 %137, i32 %136, i32 %134
  %139 = select i1 %41, i32 66, i32 65
  %140 = select i1 %45, i32 67, i32 %139
  %141 = select i1 %49, i32 68, i32 %140
  %142 = select i1 %53, i32 69, i32 %141
  %143 = select i1 %57, i32 70, i32 %142
  %144 = select i1 %61, i32 71, i32 %143
  %145 = select i1 %65, i32 72, i32 %144
  %146 = select i1 %69, i32 73, i32 %145
  %147 = select i1 %73, i32 74, i32 %146
  %148 = select i1 %77, i32 75, i32 %147
  %149 = select i1 %81, i32 76, i32 %148
  %150 = select i1 %85, i32 77, i32 %149
  %151 = select i1 %89, i32 78, i32 %150
  %152 = select i1 %93, i32 79, i32 %151
  %153 = select i1 %97, i32 80, i32 %152
  %154 = select i1 %101, i32 81, i32 %153
  %155 = select i1 %105, i32 82, i32 %154
  %156 = select i1 %109, i32 83, i32 %155
  %157 = select i1 %113, i32 84, i32 %156
  %158 = select i1 %117, i32 85, i32 %157
  %159 = select i1 %121, i32 86, i32 %158
  %160 = select i1 %125, i32 87, i32 %159
  %161 = select i1 %129, i32 88, i32 %160
  %162 = select i1 %133, i32 89, i32 %161
  %163 = select i1 %137, i32 90, i32 %162
  %164 = call i32 (i8*, ...) @printf(i8* nonnull dereferenceable(1) getelementptr inbounds ([7 x i8], [7 x i8]* @.str.2, i64 0, i64 0), i32 %163, i32 %138)
  %165 = load i32, i32* %1, align 4, !tbaa !5
  %166 = icmp sgt i32 %165, 0
  br i1 %166, label %167, label %193

167:                                              ; preds = %36, %188
  %168 = phi i32 [ %189, %188 ], [ %165, %36 ]
  %169 = phi i64 [ %190, %188 ], [ 0, %36 ]
  %170 = getelementptr inbounds [999 x [27 x i8]], [999 x [27 x i8]]* %4, i64 0, i64 %169, i64 0
  %171 = load i8, i8* %170, align 1, !tbaa !9
  %172 = icmp eq i8 %171, 0
  br i1 %172, label %188, label %177

173:                                              ; preds = %177
  %174 = getelementptr inbounds [999 x [27 x i8]], [999 x [27 x i8]]* %4, i64 0, i64 %169, i64 %182
  %175 = load i8, i8* %174, align 1, !tbaa !9
  %176 = icmp eq i8 %175, 0
  br i1 %176, label %188, label %177, !llvm.loop !13

177:                                              ; preds = %167, %173
  %178 = phi i64 [ %182, %173 ], [ 0, %167 ]
  %179 = phi i8 [ %175, %173 ], [ %171, %167 ]
  %180 = sext i8 %179 to i32
  %181 = icmp eq i32 %163, %180
  %182 = add nuw i64 %178, 1
  br i1 %181, label %183, label %173

183:                                              ; preds = %177
  %184 = getelementptr inbounds [999 x i32], [999 x i32]* %2, i64 0, i64 %169
  %185 = load i32, i32* %184, align 4, !tbaa !5
  %186 = call i32 (i8*, ...) @printf(i8* nonnull dereferenceable(1) getelementptr inbounds ([4 x i8], [4 x i8]* @.str.3, i64 0, i64 0), i32 %185)
  %187 = load i32, i32* %1, align 4, !tbaa !5
  br label %188

188:                                              ; preds = %173, %167, %183
  %189 = phi i32 [ %168, %167 ], [ %187, %183 ], [ %168, %173 ]
  %190 = add nuw nsw i64 %169, 1
  %191 = sext i32 %189 to i64
  %192 = icmp slt i64 %190, %191
  br i1 %192, label %167, label %193, !llvm.loop !14

193:                                              ; preds = %188, %36
  call void @llvm.lifetime.end.p0i8(i64 26973, i8* nonnull %8) #4
  call void @llvm.lifetime.end.p0i8(i64 108, i8* nonnull %7) #4
  call void @llvm.lifetime.end.p0i8(i64 3996, i8* nonnull %6) #4
  call void @llvm.lifetime.end.p0i8(i64 4, i8* nonnull %5) #4
  ret i32 0
}

; Function Attrs: argmemonly mustprogress nofree nosync nounwind willreturn
declare void @llvm.lifetime.start.p0i8(i64 immarg, i8* nocapture) #1

; Function Attrs: argmemonly mustprogress nofree nounwind willreturn writeonly
declare void @llvm.memset.p0i8.i64(i8* nocapture writeonly, i8, i64, i1 immarg) #2

; Function Attrs: nofree nounwind
declare noundef i32 @__isoc99_scanf(i8* nocapture noundef readonly, ...) local_unnamed_addr #3

; Function Attrs: nofree nounwind
declare noundef i32 @printf(i8* nocapture noundef readonly, ...) local_unnamed_addr #3

; Function Attrs: argmemonly mustprogress nofree nosync nounwind willreturn
declare void @llvm.lifetime.end.p0i8(i64 immarg, i8* nocapture) #1


!llvm.module.flags = !{!0, !1, !2, !3}
!llvm.ident = !{!4}

!0 = !{i32 1, !"wchar_size", i32 4}
!1 = !{i32 7, !"PIC Level", i32 2}
!2 = !{i32 7, !"PIE Level", i32 2}
!3 = !{i32 7, !"uwtable", i32 1}
!4 = !{!"clang version 13.0.0"}
!5 = !{!6, !6, i64 0}
!6 = !{!"int", !7, i64 0}
!7 = !{!"omnipotent char", !8, i64 0}
!8 = !{!"Simple C/C++ TBAA"}
!9 = !{!7, !7, i64 0}
!10 = distinct !{!10, !11}
!11 = !{!"llvm.loop.mustprogress"}
!12 = distinct !{!12, !11}
!13 = distinct !{!13, !11}
!14 = distinct !{!14, !11}
